; Function Attrs: mustprogress nofree norecurse nosync nounwind memory(argmem: readwrite) uwtable
define hidden void @_ZN7Imf_3_213RgbaInputFile7FromYca10rotateBuf2Ei(ptr nocapture noundef nonnull align 8 dereferenceable(392) %this, i32 noundef %d) local_unnamed_addr #14 align 2 {
entry:
  %tmp = alloca [3 x ptr], align 16
  %cmp.i.i = icmp sgt i32 %d, -1
  br i1 %cmp.i.i, label %cond.true.i.i, label %cond.false5.i.i

cond.true.i.i:                                    ; preds = %entry
  %div.i.i = udiv i32 %d, 3
  br label %_ZN9Imath_3_24modpEii.exit

cond.false5.i.i:                                  ; preds = %entry
  %sub9.i.i = sub i32 2, %d
  %div10.i.i = udiv i32 %sub9.i.i, 3
  %sub11.i.i = sub nsw i32 0, %div10.i.i
  br label %_ZN9Imath_3_24modpEii.exit

_ZN9Imath_3_24modpEii.exit:                       ; preds = %cond.true.i.i, %cond.false5.i.i
  %cond21.i.i = phi i32 [ %div.i.i, %cond.true.i.i ], [ %sub11.i.i, %cond.false5.i.i ]
  %mul.i.neg = mul i32 %cond21.i.i, -3
  %_buf2 = getelementptr inbounds i8, ptr %this, i64 336
  call void @llvm.memcpy.p0.p0.i64(ptr noundef nonnull align 16 dereferenceable(24) %tmp, ptr noundef nonnull align 8 dereferenceable(24) %_buf2, i64 24, i1 false)
  %sub.i = add i32 %mul.i.neg, %d
  br label %for.body7

for.body7:                                        ; preds = %_ZN9Imath_3_24modpEii.exit, %for.body7
  %indvars.iv = phi i64 [ 0, %_ZN9Imath_3_24modpEii.exit ], [ %indvars.iv.next, %for.body7 ]
  %0 = trunc i64 %indvars.iv to i32
  %1 = add i32 %sub.i, %0
  %rem = srem i32 %1, 3
  %idxprom8 = sext i32 %rem to i64
  %arrayidx9 = getelementptr inbounds [3 x ptr], ptr %tmp, i64 0, i64 %idxprom8
  %2 = load ptr, ptr %arrayidx9, align 8
  %arrayidx12 = getelementptr inbounds [3 x ptr], ptr %_buf2, i64 0, i64 %indvars.iv
  store ptr %2, ptr %arrayidx12, align 8
  %indvars.iv.next = add nuw nsw i64 %indvars.iv, 1
  %exitcond.not = icmp eq i64 %indvars.iv.next, 3
  br i1 %exitcond.not, label %for.end15, label %for.body7, !llvm.loop !21

for.end15:                                        ; preds = %for.body7
  ret void
}